target datalayout = "e-m:e-p270:32:32-p271:32:32-p272:64:64-i64:64-i128:128-f80:128-n8:16:32:64-S128"
target triple = "x86_64-pc-linux-gnu"

%struct.H5C_cache_entry_t = type { ptr, i64, i64, ptr, i8, ptr, i8, i8, i8, i8, i32, i8, i8, i8, i8, i8, i32, ptr, i32, i32, i32, i32, i32, i8, i8, ptr, ptr, ptr, ptr, ptr, ptr, i8, i32, i8, i64, ptr, i64, i64, i32, i8, i32, i32, i8, ptr, ptr, ptr }
%struct.H5C_class_t = type { i32, ptr, i32, i32, ptr, ptr, ptr, ptr, ptr, ptr, ptr, ptr, ptr, ptr }

@H5C_init_g = external global i8, align 1
@H5_libterm_g = external global i8, align 1
@.str = private unnamed_addr constant [102 x i8] c"generated/home/dtcxzyw/WorkSpace/Projects/compilers/llvm-opt-benchmark/bench/hdf5/hdf5/src/H5Centry.c\00", align 1
@H5E_CACHE_g = external global i64, align 8
@H5E_CANTNOTIFY_g = external global i64, align 8
@.str.30 = private unnamed_addr constant [19 x i8] c"entry is protected\00", align 1
@.str.32 = private unnamed_addr constant [22 x i8] c"Entry is not pinned??\00", align 1
@__func__.H5C_mark_entry_serialized = private unnamed_addr constant [26 x i8] c"H5C_mark_entry_serialized\00", align 1
@H5E_CANTMARKSERIALIZED_g = external global i64, align 8
@.str.34 = private unnamed_addr constant [36 x i8] c"Can't propagate flush dep serialize\00", align 1
@.str.71 = private unnamed_addr constant [58 x i8] c"can't notify parent about child entry serialized flag set\00", align 1
@__func__.H5C__mark_flush_dep_serialized = private unnamed_addr constant [31 x i8] c"H5C__mark_flush_dep_serialized\00", align 1

; Function Attrs: nounwind uwtable
define internal i32 @H5C__mark_flush_dep_serialized(ptr noundef %0) #0 {
  %2 = alloca ptr, align 8
  %3 = alloca i32, align 4
  %4 = alloca i32, align 4
  %5 = alloca i8, align 1
  store ptr %0, ptr %2, align 8, !tbaa !8
  call void @llvm.lifetime.start.p0(i64 4, ptr %3) #7
  call void @llvm.lifetime.start.p0(i64 4, ptr %4) #7
  store i32 0, ptr %4, align 4, !tbaa !10
  call void @llvm.lifetime.start.p0(i64 1, ptr %5) #7
  store i8 0, ptr %5, align 1, !tbaa !12
  %6 = load i8, ptr @H5C_init_g, align 1, !tbaa !12, !range !16, !noundef !17
  %7 = trunc i8 %6 to i1
  br i1 %7, label %12, label %8

8:                                                ; preds = %1
  %9 = load i8, ptr @H5_libterm_g, align 1, !tbaa !12, !range !16, !noundef !17
  %10 = trunc i8 %9 to i1
  %11 = xor i1 %10, true
  br label %12

12:                                               ; preds = %8, %1
  %13 = phi i1 [ true, %1 ], [ %11, %8 ]
  %14 = xor i1 %13, true
  %15 = xor i1 %14, true
  %16 = zext i1 %15 to i32
  %17 = sext i32 %16 to i64
  %18 = call i64 @llvm.expect.i64(i64 %17, i64 1)
  %19 = icmp ne i64 %18, 0
  br i1 %19, label %20, label %97

20:                                               ; preds = %12
  %21 = load ptr, ptr %2, align 8, !tbaa !8
  %22 = getelementptr inbounds nuw %struct.H5C_cache_entry_t, ptr %21, i32 0, i32 18
  %23 = load i32, ptr %22, align 8, !tbaa !107
  %24 = sub nsw i32 %23, 1
  store i32 %24, ptr %3, align 4, !tbaa !10
  br label %25

25:                                               ; preds = %92, %20
  %26 = load i32, ptr %3, align 4, !tbaa !10
  %27 = icmp sge i32 %26, 0
  br i1 %27, label %28, label %95

28:                                               ; preds = %25
  %29 = load ptr, ptr %2, align 8, !tbaa !8
  %30 = getelementptr inbounds nuw %struct.H5C_cache_entry_t, ptr %29, i32 0, i32 17
  %31 = load ptr, ptr %30, align 8, !tbaa !123
  %32 = load i32, ptr %3, align 4, !tbaa !10
  %33 = sext i32 %32 to i64
  %34 = getelementptr inbounds ptr, ptr %31, i64 %33
  %35 = load ptr, ptr %34, align 8, !tbaa !8
  %36 = getelementptr inbounds nuw %struct.H5C_cache_entry_t, ptr %35, i32 0, i32 22
  %37 = load i32, ptr %36, align 8, !tbaa !137
  %38 = add i32 %37, -1
  store i32 %38, ptr %36, align 8, !tbaa !137
  %39 = load ptr, ptr %2, align 8, !tbaa !8
  %40 = getelementptr inbounds nuw %struct.H5C_cache_entry_t, ptr %39, i32 0, i32 17
  %41 = load ptr, ptr %40, align 8, !tbaa !123
  %42 = load i32, ptr %3, align 4, !tbaa !10
  %43 = sext i32 %42 to i64
  %44 = getelementptr inbounds ptr, ptr %41, i64 %43
  %45 = load ptr, ptr %44, align 8, !tbaa !8
  %46 = getelementptr inbounds nuw %struct.H5C_cache_entry_t, ptr %45, i32 0, i32 5
  %47 = load ptr, ptr %46, align 8, !tbaa !68
  %48 = getelementptr inbounds nuw %struct.H5C_class_t, ptr %47, i32 0, i32 11
  %49 = load ptr, ptr %48, align 8, !tbaa !77
  %50 = icmp ne ptr %49, null
  br i1 %50, label %51, label %91

51:                                               ; preds = %28
  %52 = load ptr, ptr %2, align 8, !tbaa !8
  %53 = getelementptr inbounds nuw %struct.H5C_cache_entry_t, ptr %52, i32 0, i32 17
  %54 = load ptr, ptr %53, align 8, !tbaa !123
  %55 = load i32, ptr %3, align 4, !tbaa !10
  %56 = sext i32 %55 to i64
  %57 = getelementptr inbounds ptr, ptr %54, i64 %56
  %58 = load ptr, ptr %57, align 8, !tbaa !8
  %59 = getelementptr inbounds nuw %struct.H5C_cache_entry_t, ptr %58, i32 0, i32 5
  %60 = load ptr, ptr %59, align 8, !tbaa !68
  %61 = getelementptr inbounds nuw %struct.H5C_class_t, ptr %60, i32 0, i32 11
  %62 = load ptr, ptr %61, align 8, !tbaa !77
  %63 = load ptr, ptr %2, align 8, !tbaa !8
  %64 = getelementptr inbounds nuw %struct.H5C_cache_entry_t, ptr %63, i32 0, i32 17
  %65 = load ptr, ptr %64, align 8, !tbaa !123
  %66 = load i32, ptr %3, align 4, !tbaa !10
  %67 = sext i32 %66 to i64
  %68 = getelementptr inbounds ptr, ptr %65, i64 %67
  %69 = load ptr, ptr %68, align 8, !tbaa !8
  %70 = call i32 %62(i32 noundef 9, ptr noundef %69)
  %71 = icmp slt i32 %70, 0
  br i1 %71, label %72, label %91

72:                                               ; preds = %51
  br label %73

73:                                               ; preds = %72
  br label %74

74:                                               ; preds = %73
  br label %75

75:                                               ; preds = %74
  %76 = load i64, ptr @H5E_CACHE_g, align 8, !tbaa !14
  %77 = load i64, ptr @H5E_CANTNOTIFY_g, align 8, !tbaa !14
  %78 = call i32 (ptr, ptr, i32, i64, i64, ptr, ...) @H5E_printf_stack(ptr noundef @.str, ptr noundef @__func__.H5C__mark_flush_dep_serialized, i32 noundef 1436, i64 noundef %76, i64 noundef %77, ptr noundef @.str.71)
  br label %79

79:                                               ; preds = %75
  br label %80

80:                                               ; preds = %79
  store i8 1, ptr %5, align 1, !tbaa !12
  %81 = load i8, ptr %5, align 1, !tbaa !12, !range !16, !noundef !17
  %82 = trunc i8 %81 to i1
  %83 = zext i1 %82 to i8
  store i8 %83, ptr %5, align 1, !tbaa !12
  br label %84

84:                                               ; preds = %80
  br label %85

85:                                               ; preds = %84
  br label %86

86:                                               ; preds = %85
  store i32 -1, ptr %4, align 4, !tbaa !10
  br label %96

87:                                               ; No predecessors!
  br label %88

88:                                               ; preds = %87
  br label %89

89:                                               ; preds = %88
  br label %90

90:                                               ; preds = %89
  br label %91

91:                                               ; preds = %90, %51, %28
  br label %92

92:                                               ; preds = %91
  %93 = load i32, ptr %3, align 4, !tbaa !10
  %94 = add nsw i32 %93, -1
  store i32 %94, ptr %3, align 4, !tbaa !10
  br label %25, !llvm.loop !163

95:                                               ; preds = %25
  br label %96

96:                                               ; preds = %95, %86
  br label %97

97:                                               ; preds = %96, %12
  %98 = load i32, ptr %4, align 4, !tbaa !10
  call void @llvm.lifetime.end.p0(i64 1, ptr %5) #7
  call void @llvm.lifetime.end.p0(i64 4, ptr %4) #7
  call void @llvm.lifetime.end.p0(i64 4, ptr %3) #7
  ret i32 %98
}

; Function Attrs: nounwind uwtable
define i32 @H5C_mark_entry_serialized(ptr noundef %0) #0 {
  %2 = alloca ptr, align 8
  %3 = alloca ptr, align 8
  %4 = alloca i32, align 4
  %5 = alloca i8, align 1
  store ptr %0, ptr %2, align 8, !tbaa !126
  call void @llvm.lifetime.start.p0(i64 8, ptr %3) #7
  %6 = load ptr, ptr %2, align 8, !tbaa !126
  store ptr %6, ptr %3, align 8, !tbaa !8
  call void @llvm.lifetime.start.p0(i64 4, ptr %4) #7
  store i32 0, ptr %4, align 4, !tbaa !10
  call void @llvm.lifetime.start.p0(i64 1, ptr %5) #7
  store i8 0, ptr %5, align 1, !tbaa !12
  %7 = load i8, ptr @H5C_init_g, align 1, !tbaa !12, !range !16, !noundef !17
  %8 = trunc i8 %7 to i1
  br i1 %8, label %13, label %9

9:                                                ; preds = %1
  %10 = load i8, ptr @H5_libterm_g, align 1, !tbaa !12, !range !16, !noundef !17
  %11 = trunc i8 %10 to i1
  %12 = xor i1 %11, true
  br label %13

13:                                               ; preds = %9, %1
  %14 = phi i1 [ false, %1 ], [ %12, %9 ]
  %15 = xor i1 %14, true
  %16 = xor i1 %15, true
  %17 = zext i1 %16 to i32
  %18 = sext i32 %17 to i64
  %19 = call i64 @llvm.expect.i64(i64 %18, i64 0)
  %20 = icmp ne i64 %19, 0
  br i1 %20, label %21, label %22

21:                                               ; preds = %13
  store i8 1, ptr @H5C_init_g, align 1, !tbaa !12
  br label %22

22:                                               ; preds = %21, %13
  %23 = load i8, ptr @H5C_init_g, align 1, !tbaa !12, !range !16, !noundef !17
  %24 = trunc i8 %23 to i1
  br i1 %24, label %29, label %25

25:                                               ; preds = %22
  %26 = load i8, ptr @H5_libterm_g, align 1, !tbaa !12, !range !16, !noundef !17
  %27 = trunc i8 %26 to i1
  %28 = xor i1 %27, true
  br label %29

29:                                               ; preds = %25, %22
  %30 = phi i1 [ true, %22 ], [ %28, %25 ]
  %31 = xor i1 %30, true
  %32 = xor i1 %31, true
  %33 = zext i1 %32 to i32
  %34 = sext i32 %33 to i64
  %35 = call i64 @llvm.expect.i64(i64 %34, i64 1)
  %36 = icmp ne i64 %35, 0
  br i1 %36, label %37, label %126

37:                                               ; preds = %29
  %38 = load ptr, ptr %3, align 8, !tbaa !8
  %39 = getelementptr inbounds nuw %struct.H5C_cache_entry_t, ptr %38, i32 0, i32 8
  %40 = load i8, ptr %39, align 2, !tbaa !62, !range !16, !noundef !17
  %41 = trunc i8 %40 to i1
  br i1 %41, label %42, label %61

42:                                               ; preds = %37
  br label %43

43:                                               ; preds = %42
  br label %44

44:                                               ; preds = %43
  br label %45

45:                                               ; preds = %44
  %46 = load i64, ptr @H5E_CACHE_g, align 8, !tbaa !14
  %47 = load i64, ptr @H5E_CANTMARKSERIALIZED_g, align 8, !tbaa !14
  %48 = call i32 (ptr, ptr, i32, i64, i64, ptr, ...) @H5E_printf_stack(ptr noundef @.str, ptr noundef @__func__.H5C_mark_entry_serialized, i32 noundef 2584, i64 noundef %46, i64 noundef %47, ptr noundef @.str.30)
  br label %49

49:                                               ; preds = %45
  br label %50

50:                                               ; preds = %49
  store i8 1, ptr %5, align 1, !tbaa !12
  %51 = load i8, ptr %5, align 1, !tbaa !12, !range !16, !noundef !17
  %52 = trunc i8 %51 to i1
  %53 = zext i1 %52 to i8
  store i8 %53, ptr %5, align 1, !tbaa !12
  br label %54

54:                                               ; preds = %50
  br label %55

55:                                               ; preds = %54
  br label %56

56:                                               ; preds = %55
  store i32 -1, ptr %4, align 4, !tbaa !10
  br label %125

57:                                               ; No predecessors!
  br label %58

58:                                               ; preds = %57
  br label %59

59:                                               ; preds = %58
  br label %60

60:                                               ; preds = %59
  br label %124

61:                                               ; preds = %37
  %62 = load ptr, ptr %3, align 8, !tbaa !8
  %63 = getelementptr inbounds nuw %struct.H5C_cache_entry_t, ptr %62, i32 0, i32 11
  %64 = load i8, ptr %63, align 8, !tbaa !105, !range !16, !noundef !17
  %65 = trunc i8 %64 to i1
  br i1 %65, label %66, label %104

66:                                               ; preds = %61
  %67 = load ptr, ptr %3, align 8, !tbaa !8
  %68 = getelementptr inbounds nuw %struct.H5C_cache_entry_t, ptr %67, i32 0, i32 4
  %69 = load i8, ptr %68, align 8, !tbaa !66, !range !16, !noundef !17
  %70 = trunc i8 %69 to i1
  br i1 %70, label %103, label %71

71:                                               ; preds = %66
  %72 = load ptr, ptr %3, align 8, !tbaa !8
  %73 = getelementptr inbounds nuw %struct.H5C_cache_entry_t, ptr %72, i32 0, i32 4
  store i8 1, ptr %73, align 8, !tbaa !66
  %74 = load ptr, ptr %3, align 8, !tbaa !8
  %75 = getelementptr inbounds nuw %struct.H5C_cache_entry_t, ptr %74, i32 0, i32 18
  %76 = load i32, ptr %75, align 8, !tbaa !107
  %77 = icmp ugt i32 %76, 0
  br i1 %77, label %78, label %102

78:                                               ; preds = %71
  %79 = load ptr, ptr %3, align 8, !tbaa !8
  %80 = call i32 @H5C__mark_flush_dep_serialized(ptr noundef %79)
  %81 = icmp slt i32 %80, 0
  br i1 %81, label %82, label %101

82:                                               ; preds = %78
  br label %83

83:                                               ; preds = %82
  br label %84

84:                                               ; preds = %83
  br label %85

85:                                               ; preds = %84
  %86 = load i64, ptr @H5E_CACHE_g, align 8, !tbaa !14
  %87 = load i64, ptr @H5E_CANTMARKSERIALIZED_g, align 8, !tbaa !14
  %88 = call i32 (ptr, ptr, i32, i64, i64, ptr, ...) @H5E_printf_stack(ptr noundef @.str, ptr noundef @__func__.H5C_mark_entry_serialized, i32 noundef 2595, i64 noundef %86, i64 noundef %87, ptr noundef @.str.34)
  br label %89

89:                                               ; preds = %85
  br label %90

90:                                               ; preds = %89
  store i8 1, ptr %5, align 1, !tbaa !12
  %91 = load i8, ptr %5, align 1, !tbaa !12, !range !16, !noundef !17
  %92 = trunc i8 %91 to i1
  %93 = zext i1 %92 to i8
  store i8 %93, ptr %5, align 1, !tbaa !12
  br label %94

94:                                               ; preds = %90
  br label %95

95:                                               ; preds = %94
  br label %96

96:                                               ; preds = %95
  store i32 -1, ptr %4, align 4, !tbaa !10
  br label %125

97:                                               ; No predecessors!
  br label %98

98:                                               ; preds = %97
  br label %99

99:                                               ; preds = %98
  br label %100

100:                                              ; preds = %99
  br label %101

101:                                              ; preds = %100, %78
  br label %102

102:                                              ; preds = %101, %71
  br label %103

103:                                              ; preds = %102, %66
  br label %123

104:                                              ; preds = %61
  br label %105

105:                                              ; preds = %104
  br label %106

106:                                              ; preds = %105
  br label %107

107:                                              ; preds = %106
  %108 = load i64, ptr @H5E_CACHE_g, align 8, !tbaa !14
  %109 = load i64, ptr @H5E_CANTMARKSERIALIZED_g, align 8, !tbaa !14
  %110 = call i32 (ptr, ptr, i32, i64, i64, ptr, ...) @H5E_printf_stack(ptr noundef @.str, ptr noundef @__func__.H5C_mark_entry_serialized, i32 noundef 2599, i64 noundef %108, i64 noundef %109, ptr noundef @.str.32)
  br label %111

111:                                              ; preds = %107
  br label %112

112:                                              ; preds = %111
  store i8 1, ptr %5, align 1, !tbaa !12
  %113 = load i8, ptr %5, align 1, !tbaa !12, !range !16, !noundef !17
  %114 = trunc i8 %113 to i1
  %115 = zext i1 %114 to i8
  store i8 %115, ptr %5, align 1, !tbaa !12
  br label %116

116:                                              ; preds = %112
  br label %117

117:                                              ; preds = %116
  br label %118

118:                                              ; preds = %117
  store i32 -1, ptr %4, align 4, !tbaa !10
  br label %125

119:                                              ; No predecessors!
  br label %120

120:                                              ; preds = %119
  br label %121

121:                                              ; preds = %120
  br label %122

122:                                              ; preds = %121
  br label %123

123:                                              ; preds = %122, %103
  br label %124

124:                                              ; preds = %123, %60
  br label %125

125:                                              ; preds = %124, %118, %96, %56
  br label %126

126:                                              ; preds = %125, %29
  %127 = load i32, ptr %4, align 4, !tbaa !10
  call void @llvm.lifetime.end.p0(i64 1, ptr %5) #7
  call void @llvm.lifetime.end.p0(i64 4, ptr %4) #7
  call void @llvm.lifetime.end.p0(i64 8, ptr %3) #7
  ret i32 %127
}