; Function Attrs: nounwind uwtable
define range(i32 -1, 1) i32 @H5C_mark_entry_serialized(ptr noundef captures(none) %0) local_unnamed_addr #0 {
  %2 = load i8, ptr @H5C_init_g, align 1, !tbaa !3, !range !7, !noundef !8
  %3 = trunc nuw i8 %2 to i1
  %4 = load i8, ptr @H5_libterm_g, align 1, !range !7
  %5 = trunc nuw i8 %4 to i1
  %6 = select i1 %3, i1 true, i1 %5
  br i1 %6, label %7, label %.thread, !prof !9

.thread:                                          ; preds = %1
  store i8 1, ptr @H5C_init_g, align 1, !tbaa !3
  br label %10

7:                                                ; preds = %1
  %8 = xor i1 %5, true
  %9 = select i1 %3, i1 true, i1 %8
  br i1 %9, label %10, label %H5C__mark_flush_dep_serialized.exit.thread, !prof !150

10:                                               ; preds = %.thread, %7
  %11 = getelementptr inbounds nuw i8, ptr %0, i64 50
  %12 = load i8, ptr %11, align 2, !tbaa !58, !range !7, !noundef !8
  %13 = trunc nuw i8 %12 to i1
  br i1 %13, label %14, label %18

14:                                               ; preds = %10
  %15 = load i64, ptr @H5E_CACHE_g, align 8, !tbaa !59
  %16 = load i64, ptr @H5E_CANTMARKSERIALIZED_g, align 8, !tbaa !59
  %17 = tail call i32 (ptr, ptr, i32, i64, i64, ptr, ...) @H5E_printf_stack(ptr noundef nonnull @.str, ptr noundef nonnull @__func__.H5C_mark_entry_serialized, i32 noundef 2584, i64 noundef %15, i64 noundef %16, ptr noundef nonnull @.str.30) #9
  br label %H5C__mark_flush_dep_serialized.exit.thread

18:                                               ; preds = %10
  %19 = getelementptr inbounds nuw i8, ptr %0, i64 56
  %20 = load i8, ptr %19, align 8, !tbaa !102, !range !7, !noundef !8
  %21 = trunc nuw i8 %20 to i1
  br i1 %21, label %22, label %55

22:                                               ; preds = %18
  %23 = getelementptr inbounds nuw i8, ptr %0, i64 32
  %24 = load i8, ptr %23, align 8, !tbaa !63, !range !7, !noundef !8
  %25 = trunc nuw i8 %24 to i1
  br i1 %25, label %H5C__mark_flush_dep_serialized.exit.thread, label %26

26:                                               ; preds = %22
  store i8 1, ptr %23, align 8, !tbaa !63
  %27 = getelementptr inbounds nuw i8, ptr %0, i64 80
  %28 = load i32, ptr %27, align 8, !tbaa !105
  %29 = icmp sgt i32 %28, 0
  br i1 %29, label %.lr.ph.i, label %H5C__mark_flush_dep_serialized.exit.thread

.lr.ph.i:                                         ; preds = %26
  %30 = getelementptr inbounds nuw i8, ptr %0, i64 72
  %31 = zext nneg i32 %28 to i64
  br label %32

32:                                               ; preds = %46, %.lr.ph.i
  %indvars.iv.i = phi i64 [ %31, %.lr.ph.i ], [ %indvars.iv.next.i, %46 ]
  %indvars.iv.next.i = add nsw i64 %indvars.iv.i, -1
  %33 = load ptr, ptr %30, align 8, !tbaa !107
  %34 = getelementptr inbounds nuw ptr, ptr %33, i64 %indvars.iv.next.i
  %35 = load ptr, ptr %34, align 8, !tbaa !77
  %36 = getelementptr inbounds nuw i8, ptr %35, i64 96
  %37 = load i32, ptr %36, align 8, !tbaa !125
  %38 = add i32 %37, -1
  store i32 %38, ptr %36, align 8, !tbaa !125
  %39 = getelementptr inbounds nuw i8, ptr %35, i64 40
  %40 = load ptr, ptr %39, align 8, !tbaa !65
  %41 = getelementptr inbounds nuw i8, ptr %40, i64 80
  %42 = load ptr, ptr %41, align 8, !tbaa !74
  %.not.i = icmp eq ptr %42, null
  br i1 %.not.i, label %46, label %43

43:                                               ; preds = %32
  %44 = tail call i32 %42(i32 noundef 9, ptr noundef nonnull %35) #9
  %45 = icmp slt i32 %44, 0
  br i1 %45, label %48, label %46

46:                                               ; preds = %43, %32
  %47 = icmp samesign ugt i64 %indvars.iv.i, 1
  br i1 %47, label %32, label %H5C__mark_flush_dep_serialized.exit.thread, !llvm.loop !126

48:                                               ; preds = %43
  %49 = load i64, ptr @H5E_CACHE_g, align 8, !tbaa !59
  %50 = load i64, ptr @H5E_CANTNOTIFY_g, align 8, !tbaa !59
  %51 = tail call i32 (ptr, ptr, i32, i64, i64, ptr, ...) @H5E_printf_stack(ptr noundef nonnull @.str, ptr noundef nonnull @__func__.H5C__mark_flush_dep_serialized, i32 noundef 1436, i64 noundef %49, i64 noundef %50, ptr noundef nonnull @.str.71) #9
  %52 = load i64, ptr @H5E_CACHE_g, align 8, !tbaa !59
  %53 = load i64, ptr @H5E_CANTMARKSERIALIZED_g, align 8, !tbaa !59
  %54 = tail call i32 (ptr, ptr, i32, i64, i64, ptr, ...) @H5E_printf_stack(ptr noundef nonnull @.str, ptr noundef nonnull @__func__.H5C_mark_entry_serialized, i32 noundef 2595, i64 noundef %52, i64 noundef %53, ptr noundef nonnull @.str.34) #9
  br label %H5C__mark_flush_dep_serialized.exit.thread

55:                                               ; preds = %18
  %56 = load i64, ptr @H5E_CACHE_g, align 8, !tbaa !59
  %57 = load i64, ptr @H5E_CANTMARKSERIALIZED_g, align 8, !tbaa !59
  %58 = tail call i32 (ptr, ptr, i32, i64, i64, ptr, ...) @H5E_printf_stack(ptr noundef nonnull @.str, ptr noundef nonnull @__func__.H5C_mark_entry_serialized, i32 noundef 2599, i64 noundef %56, i64 noundef %57, ptr noundef nonnull @.str.32) #9
  br label %H5C__mark_flush_dep_serialized.exit.thread

H5C__mark_flush_dep_serialized.exit.thread:       ; preds = %46, %14, %48, %55, %26, %22, %7
  %.0 = phi i32 [ -1, %14 ], [ 0, %22 ], [ -1, %48 ], [ 0, %26 ], [ -1, %55 ], [ 0, %7 ], [ 0, %46 ]
  ret i32 %.0
}